(dp0
S'accessToken'
p1
(V13_RTmZ-lJhOfHlSWC4NQxMG0A0c2trF8YDq-bqFQJJ1EPna5feXbM6AgKbuGC1r9fblcmBXsg0_jPGf5czMHPbwLIppUH55clSkFc_02DttKtix2-x54olNr_Ym-ssvlDGSxNIsnIMBCqXdFcRHSJjAAAUFW
p2
I1536736101
tp3
s.